; Function Attrs: nounwind uwtable
define void @dt_iop_gui_update_raster(ptr noundef %0) local_unnamed_addr #0 {
  %2 = alloca ptr, align 8
  store ptr %0, ptr %2, align 8, !tbaa !190
  %3 = getelementptr inbounds nuw i8, ptr %0, i64 776
  %4 = load ptr, ptr %3, align 8, !tbaa !6
  %5 = getelementptr inbounds nuw i8, ptr %0, i64 760
  %6 = load ptr, ptr %5, align 8, !tbaa !71
  %.not = icmp eq ptr %4, null
  br i1 %.not, label %22, label %7

7:                                                ; preds = %1
  %8 = getelementptr inbounds nuw i8, ptr %4, i64 12
  %9 = load i32, ptr %8, align 4, !tbaa !162
  %.not6 = icmp eq i32 %9, 0
  br i1 %.not6, label %22, label %10

10:                                               ; preds = %7
  %11 = getelementptr inbounds nuw i8, ptr %4, i64 20
  %12 = load i32, ptr %11, align 4, !tbaa !191
  %.not7 = icmp eq i32 %12, 0
  br i1 %.not7, label %22, label %13

13:                                               ; preds = %10
  %14 = getelementptr inbounds nuw i8, ptr %4, i64 616
  %15 = load ptr, ptr %14, align 8, !tbaa !192
  %16 = tail call i64 @gtk_toggle_button_get_type() #19
  %17 = tail call ptr @g_type_check_instance_cast(ptr noundef %15, i64 noundef %16) #18
  %18 = getelementptr inbounds nuw i8, ptr %6, i64 416
  %19 = load i32, ptr %18, align 4, !tbaa !193
  tail call void @gtk_toggle_button_set_active(ptr noundef %17, i32 noundef %19) #18
  %20 = getelementptr inbounds nuw i8, ptr %4, i64 608
  %21 = load ptr, ptr %20, align 8, !tbaa !194
  call void @_raster_combo_populate(ptr noundef %21, ptr noundef nonnull %2)
  br label %22

22:                                               ; preds = %1, %7, %10, %13
  ret void
}